; Function Attrs: mustprogress nofree nounwind willreturn memory(read) uwtable
define dso_local noundef i32 @_ZNK4Json17ValueIteratorBase15computeDistanceERKS0_(ptr nocapture noundef nonnull readonly align 8 dereferenceable(9) %0, ptr nocapture noundef nonnull readonly align 8 dereferenceable(9) %1) local_unnamed_addr #9 align 2 {
  %3 = getelementptr inbounds i8, ptr %0, i64 8
  %4 = load i8, ptr %3, align 8
  %5 = and i8 %4, 1
  %.not = icmp eq i8 %5, 0
  br i1 %.not, label %10, label %6

6:                                                ; preds = %2
  %7 = getelementptr inbounds i8, ptr %1, i64 8
  %8 = load i8, ptr %7, align 8
  %9 = and i8 %8, 1
  %.not6 = icmp eq i8 %9, 0
  br i1 %.not6, label %10, label %.loopexit

10:                                               ; preds = %6, %2
  %11 = load i64, ptr %0, align 8
  %12 = inttoptr i64 %11 to ptr
  %13 = load ptr, ptr %1, align 8
  %.not89 = icmp eq ptr %13, %12
  br i1 %.not89, label %.loopexit, label %.lr.ph

.lr.ph:                                           ; preds = %10, %.lr.ph
  %.011 = phi i32 [ %14, %.lr.ph ], [ 0, %10 ]
  %.sroa.0.010 = phi ptr [ %15, %.lr.ph ], [ %12, %10 ]
  %14 = add nuw nsw i32 %.011, 1
  %15 = tail call noundef ptr @_ZSt18_Rb_tree_incrementPSt18_Rb_tree_node_base(ptr noundef %.sroa.0.010) #36
  %.not8 = icmp eq ptr %15, %13
  br i1 %.not8, label %.loopexit, label %.lr.ph, !llvm.loop !6

.loopexit:                                        ; preds = %.lr.ph, %10, %6
  %.05 = phi i32 [ 0, %6 ], [ 0, %10 ], [ %14, %.lr.ph ]
  ret i32 %.05
}